; ModuleID = 'source-C-CXX/18/2384.c'
source_filename = "source-C-CXX/18/2384.c"
target datalayout = "e-m:e-p270:32:32-p271:32:32-p272:64:64-i64:64-f80:128-n8:16:32:64-S128"
target triple = "x86_64-pc-linux-gnu"

@.str = private unnamed_addr constant [3 x i8] c"%s\00", align 1
@.str.1 = private unnamed_addr constant [4 x i8] c" %s\00", align 1

; Function Attrs: nounwind sspstrong uwtable
define dso_local i32 @main() local_unnamed_addr #0 {
  %1 = alloca [100 x i8], align 16
  %2 = alloca [100 x [100 x i8]], align 16
  %3 = alloca [100 x i8], align 16
  %4 = alloca [100 x i8], align 16
  %5 = getelementptr inbounds [100 x i8], [100 x i8]* %1, i64 0, i64 0
  call void @llvm.lifetime.start.p0i8(i64 100, i8* nonnull %5) #6
  %6 = getelementptr inbounds [100 x [100 x i8]], [100 x [100 x i8]]* %2, i64 0, i64 0, i64 0
  call void @llvm.lifetime.start.p0i8(i64 10000, i8* nonnull %6) #6
  %7 = getelementptr inbounds [100 x i8], [100 x i8]* %3, i64 0, i64 0
  call void @llvm.lifetime.start.p0i8(i64 100, i8* nonnull %7) #6
  %8 = getelementptr inbounds [100 x i8], [100 x i8]* %4, i64 0, i64 0
  call void @llvm.lifetime.start.p0i8(i64 100, i8* nonnull %8) #6
  %9 = call i32 (i8*, ...) bitcast (i32 (...)* @gets to i32 (i8*, ...)*)(i8* nonnull %5) #6
  %10 = call i32 (i8*, ...) @__isoc99_scanf(i8* getelementptr inbounds ([3 x i8], [3 x i8]* @.str, i64 0, i64 0), i8* nonnull %7)
  %11 = call i32 (i8*, ...) @__isoc99_scanf(i8* getelementptr inbounds ([3 x i8], [3 x i8]* @.str, i64 0, i64 0), i8* nonnull %8)
  br label %12

12:                                               ; preds = %22, %0
  %13 = phi i64 [ %29, %22 ], [ 0, %0 ]
  %14 = phi i64 [ %31, %22 ], [ 0, %0 ]
  %15 = phi i32 [ %28, %22 ], [ 0, %0 ]
  br label %16

16:                                               ; preds = %12, %20
  %17 = phi i64 [ %21, %20 ], [ %13, %12 ]
  %18 = getelementptr inbounds [100 x i8], [100 x i8]* %1, i64 0, i64 %17
  %19 = load i8, i8* %18, align 1, !tbaa !5
  switch i8 %19, label %20 [
    i8 0, label %32
    i8 32, label %22
  ]

20:                                               ; preds = %16
  %21 = add nuw i64 %17, 1
  br label %16, !llvm.loop !8

22:                                               ; preds = %16
  %23 = getelementptr inbounds [100 x i8], [100 x i8]* %1, i64 0, i64 %17
  store i8 0, i8* %23, align 1, !tbaa !5
  %24 = zext i32 %15 to i64
  %25 = getelementptr inbounds [100 x [100 x i8]], [100 x [100 x i8]]* %2, i64 0, i64 %24, i64 0
  %26 = getelementptr inbounds [100 x i8], [100 x i8]* %1, i64 0, i64 %14
  %27 = call i8* @strcpy(i8* noundef nonnull %25, i8* noundef nonnull %26) #6
  %28 = add nuw nsw i32 %15, 1
  %29 = add nuw i64 %17, 1
  %30 = shl i64 %29, 32
  %31 = ashr exact i64 %30, 32
  br label %12, !llvm.loop !8

32:                                               ; preds = %16
  %33 = zext i32 %15 to i64
  %34 = getelementptr inbounds [100 x [100 x i8]], [100 x [100 x i8]]* %2, i64 0, i64 %33, i64 0
  %35 = getelementptr inbounds [100 x i8], [100 x i8]* %1, i64 0, i64 %14
  %36 = call i8* @strcpy(i8* noundef nonnull %34, i8* noundef nonnull %35) #6
  %37 = add nuw i32 %15, 1
  %38 = zext i32 %37 to i64
  br label %44

39:                                               ; preds = %51
  %40 = add nuw i32 %15, 1
  %41 = zext i32 %40 to i64
  %42 = call i32 (i8*, ...) @printf(i8* nonnull dereferenceable(1) getelementptr inbounds ([3 x i8], [3 x i8]* @.str, i64 0, i64 0), i8* nonnull %6)
  %43 = icmp eq i32 %15, 0
  br i1 %43, label %60, label %54

44:                                               ; preds = %32, %51
  %45 = phi i64 [ 0, %32 ], [ %52, %51 ]
  %46 = getelementptr inbounds [100 x [100 x i8]], [100 x [100 x i8]]* %2, i64 0, i64 %45, i64 0
  %47 = call i32 @strcmp(i8* noundef nonnull %7, i8* noundef nonnull %46) #7
  %48 = icmp eq i32 %47, 0
  br i1 %48, label %49, label %51

49:                                               ; preds = %44
  %50 = call i8* @strcpy(i8* noundef nonnull %46, i8* noundef nonnull %8) #6
  br label %51

51:                                               ; preds = %44, %49
  %52 = add nuw nsw i64 %45, 1
  %53 = icmp eq i64 %52, %38
  br i1 %53, label %39, label %44, !llvm.loop !10

54:                                               ; preds = %39, %54
  %55 = phi i64 [ %58, %54 ], [ 1, %39 ]
  %56 = getelementptr inbounds [100 x [100 x i8]], [100 x [100 x i8]]* %2, i64 0, i64 %55, i64 0
  %57 = call i32 (i8*, ...) @printf(i8* nonnull dereferenceable(1) getelementptr inbounds ([4 x i8], [4 x i8]* @.str.1, i64 0, i64 0), i8* nonnull %56)
  %58 = add nuw nsw i64 %55, 1
  %59 = icmp eq i64 %58, %41
  br i1 %59, label %60, label %54, !llvm.loop !11

60:                                               ; preds = %54, %39
  call void @llvm.lifetime.end.p0i8(i64 100, i8* nonnull %8) #6
  call void @llvm.lifetime.end.p0i8(i64 100, i8* nonnull %7) #6
  call void @llvm.lifetime.end.p0i8(i64 10000, i8* nonnull %6) #6
  call void @llvm.lifetime.end.p0i8(i64 100, i8* nonnull %5) #6
  ret i32 0
}

; Function Attrs: argmemonly mustprogress nofree nosync nounwind willreturn
declare void @llvm.lifetime.start.p0i8(i64 immarg, i8* nocapture) #1

declare i32 @gets(...) local_unnamed_addr #2

; Function Attrs: nofree nounwind
declare noundef i32 @__isoc99_scanf(i8* nocapture noundef readonly, ...) local_unnamed_addr #3

; Function Attrs: argmemonly mustprogress nofree nounwind willreturn
declare i8* @strcpy(i8* noalias returned writeonly, i8* noalias nocapture readonly) local_unnamed_addr #4

; Function Attrs: argmemonly mustprogress nofree nounwind readonly willreturn
declare i32 @strcmp(i8* nocapture, i8* nocapture) local_unnamed_addr #5

; Function Attrs: nofree nounwind
declare noundef i32 @printf(i8* nocapture noundef readonly, ...) local_unnamed_addr #3

; Function Attrs: argmemonly mustprogress nofree nosync nounwind willreturn
declare void @llvm.lifetime.end.p0i8(i64 immarg, i8* nocapture) #1


!llvm.module.flags = !{!0, !1, !2, !3}
!llvm.ident = !{!4}

!0 = !{i32 1, !"wchar_size", i32 4}
!1 = !{i32 7, !"PIC Level", i32 2}
!2 = !{i32 7, !"PIE Level", i32 2}
!3 = !{i32 7, !"uwtable", i32 1}
!4 = !{!"clang version 13.0.0"}
!5 = !{!6, !6, i64 0}
!6 = !{!"omnipotent char", !7, i64 0}
!7 = !{!"Simple C/C++ TBAA"}
!8 = distinct !{!8, !9}
!9 = !{!"llvm.loop.mustprogress"}
!10 = distinct !{!10, !9}
!11 = distinct !{!11, !9, !12}
!12 = !{!"llvm.loop.peeled.count", i32 1}
